ARM GAS  /tmp/cc1eNZa2.s 			page 1


   1              		.syntax unified
   2              		.cpu cortex-m4
   3              		.eabi_attribute 27, 3
   4              		.eabi_attribute 28, 1
   5              		.fpu fpv4-sp-d16
   6              		.eabi_attribute 20, 1
   7              		.eabi_attribute 21, 1
   8              		.eabi_attribute 23, 3
   9              		.eabi_attribute 24, 1
  10              		.eabi_attribute 25, 1
  11              		.eabi_attribute 26, 1
  12              		.eabi_attribute 30, 2
  13              		.eabi_attribute 34, 1
  14              		.eabi_attribute 18, 4
  15              		.thumb
  16              		.file	"main.c"
  17              		.text
  18              	.Ltext0:
  19              		.cfi_sections	.debug_frame
  20              		.section	.text.Thread_blinker,"ax",%progbits
  21              		.align	2
  22              		.p2align 4,,15
  23              		.thumb
  24              		.thumb_func
  25              		.type	Thread_blinker, %function
  26              	Thread_blinker:
  27              	.LFB118:
  28              		.file 1 "main.c"
  29              		.loc 1 143 0
  30              		.cfi_startproc
  31              		@ args = 0, pretend = 0, frame = 0
  32              		@ frame_needed = 0, uses_anonymous_args = 0
  33              	.LVL0:
  34              		.loc 1 145 0
  35 0000 084B     		ldr	r3, .L4
  36 0002 094A     		ldr	r2, .L4+4
  37 0004 9B69     		ldr	r3, [r3, #24]
  38              		.loc 1 143 0
  39 0006 10B5     		push	{r4, lr}
  40              	.LCFI0:
  41              		.cfi_def_cfa_offset 8
  42              		.cfi_offset 4, -8
  43              		.cfi_offset 14, -4
  44              		.loc 1 147 0
  45 0008 4FF40064 		mov	r4, #2048
  46              		.loc 1 145 0
  47 000c 9A61     		str	r2, [r3, #24]
  48              		.loc 1 147 0
  49 000e C4F20204 		movt	r4, 16386
  50              	.LVL1:
  51              	.L2:
  52              		.loc 1 147 0 is_stmt 0 discriminator 1
  53 0012 6369     		ldr	r3, [r4, #20]
  54 0014 83F40053 		eor	r3, r3, #8192
  55 0018 6361     		str	r3, [r4, #20]
  56              		.loc 1 148 0 is_stmt 1 discriminator 1
  57 001a 4FF4FA70 		mov	r0, #500
ARM GAS  /tmp/cc1eNZa2.s 			page 2


  58 001e FFF7FEFF 		bl	chThdSleep
  59              	.LVL2:
  60 0022 F6E7     		b	.L2
  61              	.L5:
  62              		.align	2
  63              	.L4:
  64 0024 00000000 		.word	rlist
  65 0028 00000000 		.word	.LC0
  66              		.cfi_endproc
  67              	.LFE118:
  68              		.size	Thread_blinker, .-Thread_blinker
  69 002c AFF30080 		.section	.text.Thread_mpl3115a2,"ax",%progbits
  70              		.align	2
  71              		.p2align 4,,15
  72              		.thumb
  73              		.thumb_func
  74              		.type	Thread_mpl3115a2, %function
  75              	Thread_mpl3115a2:
  76              	.LFB119:
  77              		.loc 1 174 0
  78              		.cfi_startproc
  79              		@ args = 0, pretend = 0, frame = 56
  80              		@ frame_needed = 0, uses_anonymous_args = 0
  81              	.LVL3:
  82 0000 2DE9F04F 		push	{r4, r5, r6, r7, r8, r9, sl, fp, lr}
  83              	.LCFI1:
  84              		.cfi_def_cfa_offset 36
  85              		.cfi_offset 4, -36
  86              		.cfi_offset 5, -32
  87              		.cfi_offset 6, -28
  88              		.cfi_offset 7, -24
  89              		.cfi_offset 8, -20
  90              		.cfi_offset 9, -16
  91              		.cfi_offset 10, -12
  92              		.cfi_offset 11, -8
  93              		.cfi_offset 14, -4
  94              		.loc 1 176 0
  95 0004 5C4B     		ldr	r3, .L17
  96 0006 5D4A     		ldr	r2, .L17+4
  97 0008 9B69     		ldr	r3, [r3, #24]
  98 000a 5D4D     		ldr	r5, .L17+8
  99 000c 9A61     		str	r2, [r3, #24]
 100              		.loc 1 183 0
 101 000e 0120     		movs	r0, #1
 102              	.LVL4:
 103              		.loc 1 174 0
 104 0010 8FB0     		sub	sp, sp, #60
 105              	.LCFI2:
 106              		.cfi_def_cfa_offset 96
 107              		.loc 1 183 0
 108 0012 C0F60020 		movt	r0, 2560
 109 0016 FFF7FEFF 		bl	lwip_htonl
 110              	.LVL5:
 111 001a 0EAF     		add	r7, sp, #56
 112              		.loc 1 184 0
 113 001c 0021     		movs	r1, #0
 114 001e 0A46     		mov	r2, r1
ARM GAS  /tmp/cc1eNZa2.s 			page 3


 115              		.loc 1 183 0
 116 0020 47F8380D 		str	r0, [r7, #-56]!
 117              		.loc 1 184 0
 118 0024 2020     		movs	r0, #32
 119 0026 FFF7FEFF 		bl	netconn_new_with_proto_and_callback
 120              	.LVL6:
 121              		.loc 1 185 0
 122 002a 48F6B902 		movw	r2, #35001
 123              		.loc 1 184 0
 124 002e 0646     		mov	r6, r0
 125              	.LVL7:
 126              		.loc 1 185 0
 127 0030 0021     		movs	r1, #0
 128 0032 FFF7FEFF 		bl	netconn_bind
 129              	.LVL8:
 130              		.loc 1 186 0
 131 0036 6946     		mov	r1, sp
 132 0038 49F64042 		movw	r2, #40000
 133 003c 3046     		mov	r0, r6
 134 003e FFF7FEFF 		bl	netconn_connect
 135              	.LVL9:
 136              		.loc 1 192 0
 137 0042 6868     		ldr	r0, [r5, #4]
 138 0044 DFF84491 		ldr	r9, .L17+20
 139 0048 FFF7FEFF 		bl	mpl3115a2_get_temperature
 140              	.LVL10:
 141              		.loc 1 198 0
 142 004c 2B68     		ldr	r3, [r5, #0]
 143 004e 0DF13408 		add	r8, sp, #52
 144              		.loc 1 192 0
 145 0052 AA46     		mov	sl, r5
 146              		.loc 1 198 0
 147 0054 002B     		cmp	r3, #0
 148 0056 7BD0     		beq	.L7
 149              	.LVL11:
 150              	.L16:
 151              		.loc 1 199 0
 152 0058 99E80700 		ldmia	r9, {r0, r1, r2}
 153 005c 01AB     		add	r3, sp, #4
 154 005e 03C3     		stmia	r3!, {r0, r1}
 155 0060 23F8022B 		strh	r2, [r3], #2	@ movhi
 156 0064 120C     		lsrs	r2, r2, #16
 157 0066 1A70     		strb	r2, [r3, #0]
 158              	.L8:
 159              		.loc 1 203 0
 160 0068 6946     		mov	r1, sp
 161 006a 49F64042 		movw	r2, #40000
 162 006e 3046     		mov	r0, r6
 163 0070 FFF7FEFF 		bl	netconn_connect
 164              	.LVL12:
 165              		.loc 1 204 0
 166 0074 FFF7FEFF 		bl	netbuf_new
 167              	.LVL13:
 168              		.loc 1 205 0
 169 0078 3221     		movs	r1, #50
 170              		.loc 1 204 0
 171 007a 8346     		mov	fp, r0
ARM GAS  /tmp/cc1eNZa2.s 			page 4


 172              	.LVL14:
 173              		.loc 1 205 0
 174 007c FFF7FEFF 		bl	netbuf_alloc
 175              	.LVL15:
 176              		.loc 1 206 0
 177 0080 0DF1040C 		add	ip, sp, #4
 178 0084 8646     		mov	lr, r0
 179              	.LVL16:
 180              	.L9:
 181 0086 6446     		mov	r4, ip
 182 0088 0FCC     		ldmia	r4!, {r0, r1, r2, r3}
 183 008a 4445     		cmp	r4, r8
 184 008c CEF80000 		str	r0, [lr, #0]	@ unaligned
 185 0090 CEF80410 		str	r1, [lr, #4]	@ unaligned
 186 0094 CEF80820 		str	r2, [lr, #8]	@ unaligned
 187 0098 CEF80C30 		str	r3, [lr, #12]	@ unaligned
 188 009c A446     		mov	ip, r4
 189 009e 0EF1100E 		add	lr, lr, #16
 190 00a2 F0D1     		bne	.L9
 191 00a4 2388     		ldrh	r3, [r4, #0]	@ unaligned
 192              		.loc 1 207 0
 193 00a6 5946     		mov	r1, fp
 194              		.loc 1 206 0
 195 00a8 AEF80030 		strh	r3, [lr, #0]	@ unaligned
 196              		.loc 1 207 0
 197 00ac 3046     		mov	r0, r6
 198 00ae FFF7FEFF 		bl	netconn_send
 199              	.LVL17:
 200              		.loc 1 208 0
 201 00b2 5846     		mov	r0, fp
 202 00b4 FFF7FEFF 		bl	netbuf_delete
 203              	.LVL18:
 204              		.loc 1 209 0
 205 00b8 3046     		mov	r0, r6
 206 00ba FFF7FEFF 		bl	netconn_disconnect
 207              	.LVL19:
 208              		.loc 1 210 0
 209 00be 6868     		ldr	r0, [r5, #4]
 210 00c0 FFF7FEFF 		bl	mpl3115a2_get_bar
 211              	.LVL20:
 212              		.loc 1 212 0
 213 00c4 2868     		ldr	r0, [r5, #0]
 214              		.loc 1 211 0
 215 00c6 95F86E20 		ldrb	r2, [r5, #110]	@ zero_extendqisi2
 216 00ca 95F86F30 		ldrb	r3, [r5, #111]	@ zero_extendqisi2
 217 00ce 95F87010 		ldrb	r1, [r5, #112]	@ zero_extendqisi2
 218              	.LVL21:
 219              		.loc 1 212 0
 220 00d2 0028     		cmp	r0, #0
 221 00d4 45D0     		beq	.L10
 222              		.loc 1 213 0
 223 00d6 40F20003 		movw	r3, #:lower16:.LC4
 224              	.LVL22:
 225 00da C0F20003 		movt	r3, #:upper16:.LC4
 226 00de 93E80700 		ldmia	r3, {r0, r1, r2}
 227              	.LVL23:
 228 00e2 01AB     		add	r3, sp, #4
ARM GAS  /tmp/cc1eNZa2.s 			page 5


 229 00e4 03C3     		stmia	r3!, {r0, r1}
 230 00e6 1A80     		strh	r2, [r3, #0]	@ movhi
 231              	.LVL24:
 232              	.L11:
 233              		.loc 1 217 0
 234 00e8 6946     		mov	r1, sp
 235 00ea 49F64042 		movw	r2, #40000
 236 00ee 3046     		mov	r0, r6
 237 00f0 FFF7FEFF 		bl	netconn_connect
 238              	.LVL25:
 239              		.loc 1 218 0
 240 00f4 FFF7FEFF 		bl	netbuf_new
 241              	.LVL26:
 242              		.loc 1 219 0
 243 00f8 3221     		movs	r1, #50
 244              		.loc 1 218 0
 245 00fa 8346     		mov	fp, r0
 246              	.LVL27:
 247              		.loc 1 219 0
 248 00fc FFF7FEFF 		bl	netbuf_alloc
 249              	.LVL28:
 250              		.loc 1 220 0
 251 0100 0DF1040C 		add	ip, sp, #4
 252 0104 8646     		mov	lr, r0
 253              	.LVL29:
 254              	.L12:
 255 0106 6446     		mov	r4, ip
 256 0108 0FCC     		ldmia	r4!, {r0, r1, r2, r3}
 257 010a 4445     		cmp	r4, r8
 258 010c CEF80000 		str	r0, [lr, #0]	@ unaligned
 259 0110 CEF80410 		str	r1, [lr, #4]	@ unaligned
 260 0114 CEF80820 		str	r2, [lr, #8]	@ unaligned
 261 0118 CEF80C30 		str	r3, [lr, #12]	@ unaligned
 262 011c A446     		mov	ip, r4
 263 011e 0EF1100E 		add	lr, lr, #16
 264 0122 F0D1     		bne	.L12
 265 0124 2388     		ldrh	r3, [r4, #0]	@ unaligned
 266              		.loc 1 221 0
 267 0126 5946     		mov	r1, fp
 268              		.loc 1 220 0
 269 0128 AEF80030 		strh	r3, [lr, #0]	@ unaligned
 270              		.loc 1 221 0
 271 012c 3046     		mov	r0, r6
 272 012e FFF7FEFF 		bl	netconn_send
 273              	.LVL30:
 274              		.loc 1 222 0
 275 0132 5846     		mov	r0, fp
 276 0134 FFF7FEFF 		bl	netbuf_delete
 277              	.LVL31:
 278              		.loc 1 223 0
 279 0138 3046     		mov	r0, r6
 280 013a FFF7FEFF 		bl	netconn_disconnect
 281              	.LVL32:
 282              		.loc 1 224 0
 283 013e 0A20     		movs	r0, #10
 284 0140 FFF7FEFF 		bl	chThdSleep
 285              	.LVL33:
ARM GAS  /tmp/cc1eNZa2.s 			page 6


 286              		.loc 1 192 0
 287 0144 6868     		ldr	r0, [r5, #4]
 288 0146 FFF7FEFF 		bl	mpl3115a2_get_temperature
 289              	.LVL34:
 290              		.loc 1 198 0
 291 014a 2B68     		ldr	r3, [r5, #0]
 292 014c 002B     		cmp	r3, #0
 293 014e 83D1     		bne	.L16
 294              	.LVL35:
 295              	.L7:
 296              		.loc 1 201 0
 297 0150 01A8     		add	r0, sp, #4
 298 0152 0C49     		ldr	r1, .L17+12
 299 0154 9AF86D20 		ldrb	r2, [sl, #109]	@ zero_extendqisi2
 300 0158 9AF86C30 		ldrb	r3, [sl, #108]	@ zero_extendqisi2
 301 015c FFF7FEFF 		bl	sprintf
 302              	.LVL36:
 303 0160 82E7     		b	.L8
 304              	.LVL37:
 305              	.L10:
 306              		.loc 1 211 0
 307 0162 1B02     		lsls	r3, r3, #8
 308              	.LVL38:
 309 0164 43EA0242 		orr	r2, r3, r2, lsl #16
 310              	.LVL39:
 311 0168 0A43     		orrs	r2, r2, r1
 312 016a 22F47002 		bic	r2, r2, #15728640
 313              		.loc 1 215 0
 314 016e 01A8     		add	r0, sp, #4
 315 0170 0549     		ldr	r1, .L17+16
 316              	.LVL40:
 317 0172 FFF7FEFF 		bl	sprintf
 318              	.LVL41:
 319 0176 B7E7     		b	.L11
 320              	.L18:
 321              		.align	2
 322              	.L17:
 323 0178 00000000 		.word	rlist
 324 017c 08000000 		.word	.LC1
 325 0180 00000000 		.word	mpl3115a2_driver
 326 0184 20000000 		.word	.LC3
 327 0188 38000000 		.word	.LC5
 328 018c 14000000 		.word	.LC2
 329              		.cfi_endproc
 330              	.LFE119:
 331              		.size	Thread_mpl3115a2, .-Thread_mpl3115a2
 332              		.section	.text.Thread_indwatchdog,"ax",%progbits
 333              		.align	2
 334              		.p2align 4,,15
 335              		.thumb
 336              		.thumb_func
 337              		.type	Thread_indwatchdog, %function
 338              	Thread_indwatchdog:
 339              	.LFB120:
 340              		.loc 1 263 0
 341              		.cfi_startproc
 342              		@ args = 0, pretend = 0, frame = 0
ARM GAS  /tmp/cc1eNZa2.s 			page 7


 343              		@ frame_needed = 0, uses_anonymous_args = 0
 344              	.LVL42:
 345 0000 08B5     		push	{r3, lr}
 346              	.LCFI3:
 347              		.cfi_def_cfa_offset 8
 348              		.cfi_offset 3, -8
 349              		.cfi_offset 14, -4
 350              		.loc 1 266 0
 351 0002 054B     		ldr	r3, .L21
 352 0004 054A     		ldr	r2, .L21+4
 353 0006 9B69     		ldr	r3, [r3, #24]
 354 0008 9A61     		str	r2, [r3, #24]
 355              	.LVL43:
 356              	.L20:
 357              		.loc 1 268 0 discriminator 1
 358 000a FFF7FEFF 		bl	iwdg_lld_reload
 359              	.LVL44:
 360              		.loc 1 269 0 discriminator 1
 361 000e FA20     		movs	r0, #250
 362 0010 FFF7FEFF 		bl	chThdSleep
 363              	.LVL45:
 364 0014 F9E7     		b	.L20
 365              	.L22:
 366 0016 00BF     		.align	2
 367              	.L21:
 368 0018 00000000 		.word	rlist
 369 001c 40000000 		.word	.LC6
 370              		.cfi_endproc
 371              	.LFE120:
 372              		.size	Thread_indwatchdog, .-Thread_indwatchdog
 373              		.section	.text.startup.main,"ax",%progbits
 374              		.align	2
 375              		.p2align 4,,15
 376              		.global	main
 377              		.thumb
 378              		.thumb_func
 379              		.type	main, %function
 380              	main:
 381              	.LFB121:
 382              		.loc 1 276 0
 383              		.cfi_startproc
 384              		@ args = 0, pretend = 0, frame = 32
 385              		@ frame_needed = 0, uses_anonymous_args = 0
 386 0000 F0B5     		push	{r4, r5, r6, r7, lr}
 387              	.LCFI4:
 388              		.cfi_def_cfa_offset 20
 389              		.cfi_offset 4, -20
 390              		.cfi_offset 5, -16
 391              		.cfi_offset 6, -12
 392              		.cfi_offset 7, -8
 393              		.cfi_offset 14, -4
 394 0002 8BB0     		sub	sp, sp, #44
 395              	.LCFI5:
 396              		.cfi_def_cfa_offset 64
 397              		.loc 1 291 0
 398 0004 FFF7FEFF 		bl	halInit
 399              	.LVL46:
ARM GAS  /tmp/cc1eNZa2.s 			page 8


 400              		.loc 1 304 0
 401 0008 0AAF     		add	r7, sp, #40
 402              		.loc 1 292 0
 403 000a FFF7FEFF 		bl	chSysInit
 404              	.LVL47:
 405              		.loc 1 301 0
 406 000e 0A25     		movs	r5, #10
 407              		.loc 1 294 0
 408 0010 FFF7FEFF 		bl	extdetail_init
 409              	.LVL48:
 410              		.loc 1 332 0
 411 0014 4FF4A054 		mov	r4, #5120
 412              		.loc 1 304 0
 413 0018 4D4A     		ldr	r2, .L28
 414              		.loc 1 349 0
 415 001a 4E4E     		ldr	r6, .L28+4
 416              		.loc 1 304 0
 417 001c 47F8102D 		str	r2, [r7, #-16]!
 418              		.loc 1 332 0
 419 0020 C4F20204 		movt	r4, 16386
 420              		.loc 1 303 0
 421 0024 2B46     		mov	r3, r5
 422              		.loc 1 301 0
 423 0026 C0F20025 		movt	r5, 512
 424              		.loc 1 303 0
 425 002a CFF60063 		movt	r3, 65024
 426              		.loc 1 332 0
 427 002e 0121     		movs	r1, #1
 428 0030 2046     		mov	r0, r4
 429 0032 40F21E22 		movw	r2, #542
 430              		.loc 1 301 0
 431 0036 0795     		str	r5, [sp, #28]
 432              		.loc 1 302 0
 433 0038 6FF07F45 		mvn	r5, #-16777216
 434              		.loc 1 303 0
 435 003c 0993     		str	r3, [sp, #36]
 436              		.loc 1 302 0
 437 003e 0895     		str	r5, [sp, #32]
 438              		.loc 1 332 0
 439 0040 FFF7FEFF 		bl	_pal_lld_setgroupmode
 440              	.LVL49:
 441              		.loc 1 334 0
 442 0044 2046     		mov	r0, r4
 443 0046 0221     		movs	r1, #2
 444 0048 40F21A22 		movw	r2, #538
 445 004c FFF7FEFF 		bl	_pal_lld_setgroupmode
 446              	.LVL50:
 447              		.loc 1 340 0
 448 0050 40F23A22 		movw	r2, #570
 449 0054 0421     		movs	r1, #4
 450 0056 2046     		mov	r0, r4
 451 0058 FFF7FEFF 		bl	_pal_lld_setgroupmode
 452              	.LVL51:
 453              		.loc 1 343 0
 454 005c 0223     		movs	r3, #2
 455 005e 2383     		strh	r3, [r4, #24]	@ movhi
 456              		.loc 1 348 0
ARM GAS  /tmp/cc1eNZa2.s 			page 9


 457 0060 3D48     		ldr	r0, .L28+8
 458 0062 3E4C     		ldr	r4, .L28+12
 459 0064 FFF7FEFF 		bl	sduObjectInit
 460              	.LVL52:
 461              		.loc 1 349 0
 462 0068 3B48     		ldr	r0, .L28+8
 463 006a 3146     		mov	r1, r6
 464 006c 0546     		mov	r5, r0
 465 006e FFF7FEFF 		bl	sduStart
 466              	.LVL53:
 467              		.loc 1 356 0
 468 0072 3668     		ldr	r6, [r6, #0]
 469 0074 F36B     		ldr	r3, [r6, #60]
 470 0076 9A6B     		ldr	r2, [r3, #56]
 471 0078 22F40022 		bic	r2, r2, #524288
 472 007c 9A63     		str	r2, [r3, #56]
 473              		.loc 1 357 0
 474 007e 4FF47A70 		mov	r0, #1000
 475 0082 FFF7FEFF 		bl	chThdSleep
 476              	.LVL54:
 477              		.loc 1 358 0
 478 0086 3046     		mov	r0, r6
 479 0088 3549     		ldr	r1, .L28+16
 480 008a FFF7FEFF 		bl	usbStart
 481              	.LVL55:
 482              		.loc 1 359 0
 483 008e F36B     		ldr	r3, [r6, #60]
 484 0090 9A6B     		ldr	r2, [r3, #56]
 485 0092 42F40022 		orr	r2, r2, #524288
 486 0096 9A63     		str	r2, [r3, #56]
 487              		.loc 1 361 0
 488 0098 FFF7FEFF 		bl	shellInit
 489              	.LVL56:
 490              		.loc 1 363 0
 491 009c FFF7FEFF 		bl	iwdg_begin
 492              	.LVL57:
 493              		.loc 1 373 0
 494 00a0 3048     		ldr	r0, .L28+20
 495 00a2 FFF7FEFF 		bl	mpl3115a2_start
 496              	.LVL58:
 497              		.loc 1 374 0
 498 00a6 304B     		ldr	r3, .L28+24
 499 00a8 3049     		ldr	r1, .L28+28
 500 00aa 5868     		ldr	r0, [r3, #4]
 501 00ac FFF7FEFF 		bl	i2cStart
 502              	.LVL59:
 503              		.loc 1 375 0
 504 00b0 4FF47A70 		mov	r0, #1000
 505 00b4 FFF7FEFF 		bl	chThdSleep
 506              	.LVL60:
 507              		.loc 1 380 0
 508 00b8 0026     		movs	r6, #0
 509              		.loc 1 376 0
 510 00ba 2A48     		ldr	r0, .L28+20
 511 00bc FFF7FEFF 		bl	mpl3115a2_init
 512              	.LVL61:
 513              		.loc 1 380 0
ARM GAS  /tmp/cc1eNZa2.s 			page 10


 514 00c0 F021     		movs	r1, #240
 515 00c2 4022     		movs	r2, #64
 516 00c4 2A4B     		ldr	r3, .L28+32
 517 00c6 0096     		str	r6, [sp, #0]
 518 00c8 2A48     		ldr	r0, .L28+36
 519 00ca FFF7FEFF 		bl	chThdCreateStatic
 520              	.LVL62:
 521              		.loc 1 381 0
 522 00ce F021     		movs	r1, #240
 523 00d0 4022     		movs	r2, #64
 524 00d2 294B     		ldr	r3, .L28+40
 525 00d4 0096     		str	r6, [sp, #0]
 526 00d6 2948     		ldr	r0, .L28+44
 527 00d8 FFF7FEFF 		bl	chThdCreateStatic
 528              	.LVL63:
 529              		.loc 1 382 0
 530 00dc 4222     		movs	r2, #66
 531 00de 4FF40071 		mov	r1, #512
 532 00e2 274B     		ldr	r3, .L28+48
 533 00e4 0097     		str	r7, [sp, #0]
 534 00e6 2748     		ldr	r0, .L28+52
 535 00e8 FFF7FEFF 		bl	chThdCreateStatic
 536              	.LVL64:
 537              		.loc 1 383 0
 538 00ec 4022     		movs	r2, #64
 539 00ee 4FF42C71 		mov	r1, #688
 540 00f2 254B     		ldr	r3, .L28+56
 541 00f4 0096     		str	r6, [sp, #0]
 542 00f6 2548     		ldr	r0, .L28+60
 543 00f8 FFF7FEFF 		bl	chThdCreateStatic
 544              	.LVL65:
 545              		.loc 1 385 0
 546 00fc 2448     		ldr	r0, .L28+64
 547 00fe 02A9     		add	r1, sp, #8
 548 0100 0122     		movs	r2, #1
 549 0102 FFF7FEFF 		bl	chEvtRegisterMask
 550              	.LVL66:
 551              		.loc 1 387 0
 552 0106 2746     		mov	r7, r4
 553 0108 0CE0     		b	.L26
 554              	.L24:
 555              		.loc 1 389 0
 556 010a 90F82030 		ldrb	r3, [r0, #32]	@ zero_extendqisi2
 557 010e 0E2B     		cmp	r3, #14
 558 0110 19D0     		beq	.L27
 559              	.L25:
 560              		.loc 1 393 0
 561 0112 4FF4FA71 		mov	r1, #500
 562 0116 0120     		movs	r0, #1
 563 0118 FFF7FEFF 		bl	chEvtWaitOneTimeout
 564              	.LVL67:
 565 011c 0146     		mov	r1, r0
 566 011e 1D48     		ldr	r0, .L28+68
 567 0120 FFF7FEFF 		bl	chEvtDispatch
 568              	.LVL68:
 569              	.L26:
 570              		.loc 1 387 0
ARM GAS  /tmp/cc1eNZa2.s 			page 11


 571 0124 2068     		ldr	r0, [r4, #0]
 572 0126 0028     		cmp	r0, #0
 573 0128 EFD1     		bne	.L24
 574              		.loc 1 387 0 is_stmt 0 discriminator 1
 575 012a D5F85432 		ldr	r3, [r5, #596]
 576 012e 1B68     		ldr	r3, [r3, #0]
 577 0130 1B78     		ldrb	r3, [r3, #0]	@ zero_extendqisi2
 578 0132 042B     		cmp	r3, #4
 579 0134 E9D1     		bne	.L24
 580              		.loc 1 388 0 is_stmt 1
 581 0136 1848     		ldr	r0, .L28+72
 582 0138 4FF40B61 		mov	r1, #2224
 583 013c 4022     		movs	r2, #64
 584 013e FFF7FEFF 		bl	shellCreate
 585              	.LVL69:
 586 0142 3860     		str	r0, [r7, #0]
 587 0144 E5E7     		b	.L25
 588              	.L27:
 589              		.loc 1 390 0
 590 0146 FFF7FEFF 		bl	chThdRelease
 591              	.LVL70:
 592              		.loc 1 391 0
 593 014a 2660     		str	r6, [r4, #0]
 594 014c E1E7     		b	.L25
 595              	.L29:
 596 014e 00BF     		.align	2
 597              	.L28:
 598 0150 00000000 		.word	.LANCHOR0
 599 0154 00000000 		.word	serusbcfg
 600 0158 00000000 		.word	SDU1
 601 015c 00000000 		.word	.LANCHOR5
 602 0160 00000000 		.word	usbcfg
 603 0164 00000000 		.word	I2CD2
 604 0168 00000000 		.word	mpl3115a2_driver
 605 016c 00000000 		.word	.LANCHOR1
 606 0170 00000000 		.word	Thread_blinker
 607 0174 00000000 		.word	.LANCHOR2
 608 0178 00000000 		.word	Thread_indwatchdog
 609 017c 00000000 		.word	.LANCHOR3
 610 0180 00000000 		.word	lwip_thread
 611 0184 00000000 		.word	wa_lwip_thread
 612 0188 00000000 		.word	Thread_mpl3115a2
 613 018c 00000000 		.word	.LANCHOR4
 614 0190 00000000 		.word	extdetail_wkup_event
 615 0194 00000000 		.word	.LANCHOR7
 616 0198 00000000 		.word	.LANCHOR6
 617              		.cfi_endproc
 618              	.LFE121:
 619              		.size	main, .-main
 620              		.global	mpl3115a2_connections
 621              		.global	mpl3115a2_config
 622 019c AFF30080 		.section	.bss.waThread_indwatchdog,"aw",%nobits
 623              		.align	3
 624              		.set	.LANCHOR3,. + 0
 625              		.type	waThread_indwatchdog, %object
 626              		.size	waThread_indwatchdog, 240
 627              	waThread_indwatchdog:
ARM GAS  /tmp/cc1eNZa2.s 			page 12


 628 0000 00000000 		.space	240
 628      00000000 
 628      00000000 
 628      00000000 
 628      00000000 
 629              		.section	.bss.waThread_mpl3115a2,"aw",%nobits
 630              		.align	3
 631              		.set	.LANCHOR4,. + 0
 632              		.type	waThread_mpl3115a2, %object
 633              		.size	waThread_mpl3115a2, 688
 634              	waThread_mpl3115a2:
 635 0000 00000000 		.space	688
 635      00000000 
 635      00000000 
 635      00000000 
 635      00000000 
 636              		.section	.rodata.mpl3115a2_connections,"a",%progbits
 637              		.align	2
 638              		.type	mpl3115a2_connections, %object
 639              		.size	mpl3115a2_connections, 24
 640              	mpl3115a2_connections:
 641 0000 00140240 		.word	1073878016
 642 0004 0000     		.short	0
 643 0006 0000     		.space	2
 644 0008 00140240 		.word	1073878016
 645 000c 0100     		.short	1
 646 000e 0000     		.space	2
 647 0010 00140240 		.word	1073878016
 648 0014 0200     		.short	2
 649 0016 0000     		.space	2
 650              		.section	.data.macAddress.8960,"aw",%progbits
 651              		.align	2
 652              		.set	.LANCHOR0,. + 0
 653              		.type	macAddress.8960, %object
 654              		.size	macAddress.8960, 6
 655              	macAddress.8960:
 656 0000 C2       		.byte	-62
 657 0001 AF       		.byte	-81
 658 0002 51       		.byte	81
 659 0003 03       		.byte	3
 660 0004 CF       		.byte	-49
 661 0005 46       		.byte	70
 662 0006 0000     		.section	.rodata.str1.4,"aMS",%progbits,1
 663              		.align	2
 664              	.LC0:
 665 0000 626C696E 		.ascii	"blinker\000"
 665      6B657200 
 666              	.LC1:
 667 0008 6D706C33 		.ascii	"mpl3115a2\000"
 667      31313561 
 667      3200
 668 0012 0000     		.space	2
 669              	.LC2:
 670 0014 54454D50 		.ascii	"TEMP ERROR\000"
 670      20455252 
 670      4F5200
 671 001f 00       		.space	1
ARM GAS  /tmp/cc1eNZa2.s 			page 13


 672              	.LC3:
 673 0020 54454D50 		.ascii	"TEMP %d %d\000"
 673      20256420 
 673      256400
 674 002b 00       		.space	1
 675              	.LC4:
 676 002c 42415220 		.ascii	"BAR ERROR\000"
 676      4552524F 
 676      5200
 677 0036 0000     		.space	2
 678              	.LC5:
 679 0038 42415220 		.ascii	"BAR %d\000"
 679      256400
 680 003f 00       		.space	1
 681              	.LC6:
 682 0040 69776174 		.ascii	"iwatchdog\000"
 682      6368646F 
 682      6700
 683 004a 0000     		.space	2
 684              	.LC7:
 685 004c 6D656D00 		.ascii	"mem\000"
 686              	.LC8:
 687 0050 74687265 		.ascii	"threads\000"
 687      61647300 
 688              		.section	.bss.waThread_blinker,"aw",%nobits
 689              		.align	3
 690              		.set	.LANCHOR2,. + 0
 691              		.type	waThread_blinker, %object
 692              		.size	waThread_blinker, 240
 693              	waThread_blinker:
 694 0000 00000000 		.space	240
 694      00000000 
 694      00000000 
 694      00000000 
 694      00000000 
 695              		.section	.rodata.mpl3115a2_config,"a",%progbits
 696              		.align	2
 697              		.set	.LANCHOR1,. + 0
 698              		.type	mpl3115a2_config, %object
 699              		.size	mpl3115a2_config, 12
 700              	mpl3115a2_config:
 701 0000 01       		.byte	1
 702 0001 000000   		.space	3
 703 0004 801A0600 		.word	400000
 704 0008 02       		.byte	2
 705 0009 000000   		.space	3
 706              		.section	.rodata.shell_cfg1,"a",%progbits
 707              		.align	2
 708              		.set	.LANCHOR6,. + 0
 709              		.type	shell_cfg1, %object
 710              		.size	shell_cfg1, 8
 711              	shell_cfg1:
 712 0000 00000000 		.word	SDU1
 713 0004 00000000 		.word	commands
 714              		.section	.rodata.evhndl_main.8957,"a",%progbits
 715              		.align	2
 716              		.set	.LANCHOR7,. + 0
ARM GAS  /tmp/cc1eNZa2.s 			page 14


 717              		.type	evhndl_main.8957, %object
 718              		.size	evhndl_main.8957, 4
 719              	evhndl_main.8957:
 720 0000 00000000 		.word	extdetail_WKUP_button_handler
 721              		.section	.rodata.commands,"a",%progbits
 722              		.align	2
 723              		.type	commands, %object
 724              		.size	commands, 24
 725              	commands:
 726 0000 4C000000 		.word	.LC7
 727 0004 00000000 		.word	cmd_mem
 728 0008 50000000 		.word	.LC8
 729 000c 00000000 		.word	cmd_threads
 730 0010 00000000 		.word	0
 731 0014 00000000 		.word	0
 732              		.section	.bss.shelltp.8956,"aw",%nobits
 733              		.align	2
 734              		.set	.LANCHOR5,. + 0
 735              		.type	shelltp.8956, %object
 736              		.size	shelltp.8956, 4
 737              	shelltp.8956:
 738 0000 00000000 		.space	4
 739              		.text
 740              	.Letext0:
 741              		.file 2 "/home/david/toolchains/psas/x-tools/stm32f407/arm-psas-eabi/bin/../lib/gcc/arm-psas-eabi/
 742              		.file 3 "/home/david/toolchains/psas/x-tools/stm32f407/arm-psas-eabi/bin/../lib/gcc/arm-psas-eabi/
 743              		.file 4 "../../ChibiOS/os/ports/GCC/ARMCMx/chtypes.h"
 744              		.file 5 "../../ChibiOS/os/kernel/include/chlists.h"
 745              		.file 6 "../../ChibiOS/os/kernel/include/chthreads.h"
 746              		.file 7 "../../ChibiOS/os/ports/GCC/ARMCMx/chcore_v7m.h"
 747              		.file 8 "../../ChibiOS/os/kernel/include/chschd.h"
 748              		.file 9 "../../ChibiOS/os/kernel/include/chsem.h"
 749              		.file 10 "../../ChibiOS/os/kernel/include/chmtx.h"
 750              		.file 11 "../../ChibiOS/os/kernel/include/chevents.h"
 751              		.file 12 "../../ChibiOS/os/kernel/include/chmboxes.h"
 752              		.file 13 "../../ChibiOS/os/kernel/include/chqueues.h"
 753              		.file 14 "../../ChibiOS/os/kernel/include/chstreams.h"
 754              		.file 15 "../../ChibiOS/os/hal/platforms/STM32F4xx/stm32f4xx.h"
 755              		.file 16 "../../ChibiOS/os/hal/platforms/STM32F4xx/stm32_dma.h"
 756              		.file 17 "../../ChibiOS/os/hal/platforms/STM32/GPIOv2/pal_lld.h"
 757              		.file 18 "../../ChibiOS/os/hal/include/i2c.h"
 758              		.file 19 "../../ChibiOS/os/hal/platforms/STM32/I2Cv1/i2c_lld.h"
 759              		.file 20 "../../ChibiOS/os/hal/include/usb.h"
 760              		.file 21 "../../ChibiOS/os/hal/platforms/STM32/OTGv1/usb_lld.h"
 761              		.file 22 "../../ChibiOS/os/hal/platforms/STM32/OTGv1/stm32_otg.h"
 762              		.file 23 "../../ChibiOS/os/hal/include/serial_usb.h"
 763              		.file 24 "../../ChibiOS/os/various/shell.h"
 764              		.file 25 "../../devices/include/MPL3115A2.h"
 765              		.file 26 "../../ChibiOS/os/various/lwip_bindings/arch/cc.h"
 766              		.file 27 "../../ChibiOS/ext/lwip/src/include/ipv4/lwip/ip_addr.h"
 767              		.file 28 "../../ChibiOS/os/various/lwip_bindings/lwipthread.h"
 768              		.file 29 "../../ChibiOS/ext/lwip/src/include/lwip/err.h"
 769              		.file 30 "../../ChibiOS/ext/lwip/src/include/lwip/pbuf.h"
 770              		.file 31 "../../ChibiOS/ext/lwip/src/include/lwip/netbuf.h"
 771              		.file 32 "../../ChibiOS/os/various/lwip_bindings/arch/sys_arch.h"
 772              		.file 33 "../../ChibiOS/ext/lwip/src/include/lwip/api.h"
 773              		.file 34 "../../ChibiOS/os/ports/common/ARMCMx/CMSIS/include/core_cm4.h"
ARM GAS  /tmp/cc1eNZa2.s 			page 15


 774              		.file 35 "usbdetail.h"
 775              		.file 36 "extdetail.h"
 776              		.file 37 "../../ChibiOS/ext/lwip/src/include/lwip/def.h"
 777              		.file 38 "/home/david/toolchains/psas/x-tools/stm32f407/arm-psas-eabi/bin/../lib/gcc/arm-psas-eabi
 778              		.file 39 "../common/iwdg_lld.h"
 779              		.file 40 "../../ChibiOS/os/hal/include/hal.h"
 780              		.file 41 "../../ChibiOS/os/kernel/include/chsys.h"
 781              		.file 42 "../../ChibiOS/os/kernel/include/chdynamic.h"