ARM GAS  /tmp/cc0PDqh8.s 			page 1


   1              		.syntax unified
   2              		.cpu cortex-m4
   3              		.eabi_attribute 27, 3
   4              		.eabi_attribute 28, 1
   5              		.fpu fpv4-sp-d16
   6              		.eabi_attribute 20, 1
   7              		.eabi_attribute 21, 1
   8              		.eabi_attribute 23, 3
   9              		.eabi_attribute 24, 1
  10              		.eabi_attribute 25, 1
  11              		.eabi_attribute 26, 1
  12              		.eabi_attribute 30, 2
  13              		.eabi_attribute 34, 1
  14              		.eabi_attribute 18, 4
  15              		.thumb
  16              		.file	"MPL3115A2.c"
  17              		.text
  18              	.Ltext0:
  19              		.cfi_sections	.debug_frame
  20              		.section	.text.i2c_errno_str,"ax",%progbits
  21              		.align	2
  22              		.p2align 4,,15
  23              		.global	i2c_errno_str
  24              		.thumb
  25              		.thumb_func
  26              		.type	i2c_errno_str, %function
  27              	i2c_errno_str:
  28              	.LFB118:
  29              		.file 1 "../../devices/MPL3115A2.c"
  30              		.loc 1 44 0
  31              		.cfi_startproc
  32              		@ args = 0, pretend = 0, frame = 0
  33              		@ frame_needed = 0, uses_anonymous_args = 0
  34              		@ link register save eliminated.
  35              	.LVL0:
  36 0000 0749     		ldr	r1, .L8
  37              		.loc 1 44 0
  38 0002 0023     		movs	r3, #0
  39              	.LVL1:
  40              	.L4:
  41 0004 01EBC302 		add	r2, r1, r3, lsl #3
  42              		.loc 1 49 0
  43 0008 5268     		ldr	r2, [r2, #4]
  44 000a 8242     		cmp	r2, r0
  45 000c 04D0     		beq	.L7
  46 000e 0133     		adds	r3, r3, #1
  47              		.loc 1 48 0
  48 0010 092B     		cmp	r3, #9
  49 0012 F7D1     		bne	.L4
  50              		.loc 1 53 0
  51 0014 0348     		ldr	r0, .L8+4
  52              	.LVL2:
  53              		.loc 1 54 0
  54 0016 7047     		bx	lr
  55              	.LVL3:
  56              	.L7:
  57              		.loc 1 50 0
ARM GAS  /tmp/cc0PDqh8.s 			page 2


  58 0018 014A     		ldr	r2, .L8
  59 001a 52F83300 		ldr	r0, [r2, r3, lsl #3]
  60              	.LVL4:
  61 001e 7047     		bx	lr
  62              	.L9:
  63              		.align	2
  64              	.L8:
  65 0020 00000000 		.word	.LANCHOR0
  66 0024 00000000 		.word	.LC0
  67              		.cfi_endproc
  68              	.LFE118:
  69              		.size	i2c_errno_str, .-i2c_errno_str
  70 0028 AFF30080 		.section	.text.mpl3115a2_int_event_handler,"ax",%progbits
  70      AFF30080 
  71              		.align	2
  72              		.p2align 4,,15
  73              		.global	mpl3115a2_int_event_handler
  74              		.thumb
  75              		.thumb_func
  76              		.type	mpl3115a2_int_event_handler, %function
  77              	mpl3115a2_int_event_handler:
  78              	.LFB119:
  79              		.loc 1 62 0
  80              		.cfi_startproc
  81              		@ args = 0, pretend = 0, frame = 0
  82              		@ frame_needed = 0, uses_anonymous_args = 0
  83              		@ link register save eliminated.
  84              	.LVL5:
  85 0000 7047     		bx	lr
  86              		.cfi_endproc
  87              	.LFE119:
  88              		.size	mpl3115a2_int_event_handler, .-mpl3115a2_int_event_handler
  89 0002 00BFAFF3 		.section	.text.mpl3115a2_start,"ax",%progbits
  89      0080AFF3 
  89      0080AFF3 
  89      0080
  90              		.align	2
  91              		.p2align 4,,15
  92              		.global	mpl3115a2_start
  93              		.thumb
  94              		.thumb_func
  95              		.type	mpl3115a2_start, %function
  96              	mpl3115a2_start:
  97              	.LFB120:
  98              		.loc 1 67 0
  99              		.cfi_startproc
 100              		@ args = 0, pretend = 0, frame = 0
 101              		@ frame_needed = 0, uses_anonymous_args = 0
 102              		@ link register save eliminated.
 103              	.LVL6:
 104              		.loc 1 70 0
 105 0000 0D4A     		ldr	r2, .L16
 106 0002 0E49     		ldr	r1, .L16+4
 107              		.loc 1 67 0
 108 0004 30B4     		push	{r4, r5}
 109              	.LCFI0:
 110              		.cfi_def_cfa_offset 8
ARM GAS  /tmp/cc0PDqh8.s 			page 3


 111              		.cfi_offset 4, -8
 112              		.cfi_offset 5, -4
 113              		.loc 1 71 0
 114 0006 5060     		str	r0, [r2, #4]
 115              		.loc 1 70 0
 116 0008 0020     		movs	r0, #0
 117              	.LVL7:
 118              		.loc 1 71 0
 119 000a 0346     		mov	r3, r0
 120              		.loc 1 70 0
 121 000c 1060     		str	r0, [r2, #0]
 122              	.LVL8:
 123              	.L12:
 124              		.loc 1 67 0 discriminator 2
 125 000e D518     		adds	r5, r2, r3
 126 0010 CC18     		adds	r4, r1, r3
 127 0012 0133     		adds	r3, r3, #1
 128              		.loc 1 72 0 discriminator 2
 129 0014 322B     		cmp	r3, #50
 130              		.loc 1 73 0 discriminator 2
 131 0016 2872     		strb	r0, [r5, #8]
 132              		.loc 1 74 0 discriminator 2
 133 0018 2071     		strb	r0, [r4, #4]
 134              		.loc 1 72 0 discriminator 2
 135 001a F8D1     		bne	.L12
 136              		.loc 1 72 0 is_stmt 0
 137 001c 0023     		movs	r3, #0
 138              		.loc 1 77 0 is_stmt 1
 139 001e A520     		movs	r0, #165
 140              	.L13:
 141              		.loc 1 67 0 discriminator 2
 142 0020 D518     		adds	r5, r2, r3
 143 0022 CC18     		adds	r4, r1, r3
 144 0024 0133     		adds	r3, r3, #1
 145              		.loc 1 76 0 discriminator 2
 146 0026 322B     		cmp	r3, #50
 147              		.loc 1 77 0 discriminator 2
 148 0028 85F83A00 		strb	r0, [r5, #58]
 149              		.loc 1 78 0 discriminator 2
 150 002c 84F83600 		strb	r0, [r4, #54]
 151              		.loc 1 76 0 discriminator 2
 152 0030 F6D1     		bne	.L13
 153              		.loc 1 81 0
 154 0032 30BC     		pop	{r4, r5}
 155 0034 7047     		bx	lr
 156              	.L17:
 157 0036 00BF     		.align	2
 158              	.L16:
 159 0038 00000000 		.word	.LANCHOR1
 160 003c 00000000 		.word	.LANCHOR2
 161              		.cfi_endproc
 162              	.LFE120:
 163              		.size	mpl3115a2_start, .-mpl3115a2_start
 164              		.section	.text.mpl3115a2_init,"ax",%progbits
 165              		.align	2
 166              		.p2align 4,,15
 167              		.global	mpl3115a2_init
ARM GAS  /tmp/cc0PDqh8.s 			page 4


 168              		.thumb
 169              		.thumb_func
 170              		.type	mpl3115a2_init, %function
 171              	mpl3115a2_init:
 172              	.LFB121:
 173              		.loc 1 83 0
 174              		.cfi_startproc
 175              		@ args = 0, pretend = 0, frame = 0
 176              		@ frame_needed = 0, uses_anonymous_args = 0
 177              	.LVL9:
 178 0000 2DE9F041 		push	{r4, r5, r6, r7, r8, lr}
 179              	.LCFI1:
 180              		.cfi_def_cfa_offset 24
 181              		.cfi_offset 4, -24
 182              		.cfi_offset 5, -20
 183              		.cfi_offset 6, -16
 184              		.cfi_offset 7, -12
 185              		.cfi_offset 8, -8
 186              		.cfi_offset 14, -4
 187              		.loc 1 87 0
 188 0004 314C     		ldr	r4, .L34
 189              		.loc 1 83 0
 190 0006 84B0     		sub	sp, sp, #16
 191              	.LCFI2:
 192              		.cfi_def_cfa_offset 40
 193              		.loc 1 89 0
 194 0008 0123     		movs	r3, #1
 195              		.loc 1 87 0
 196 000a 0C25     		movs	r5, #12
 197              		.loc 1 89 0
 198 000c 04F13A08 		add	r8, r4, #58
 199 0010 4FF4C877 		mov	r7, #400
 200              		.loc 1 87 0
 201 0014 2572     		strb	r5, [r4, #8]
 202              		.loc 1 89 0
 203 0016 CDF80080 		str	r8, [sp, #0]
 204              		.loc 1 88 0
 205 001a 0025     		movs	r5, #0
 206              		.loc 1 89 0
 207 001c 0193     		str	r3, [sp, #4]
 208 001e 0297     		str	r7, [sp, #8]
 209 0020 6021     		movs	r1, #96
 210 0022 04F10802 		add	r2, r4, #8
 211              		.loc 1 83 0
 212 0026 0646     		mov	r6, r0
 213              		.loc 1 88 0
 214 0028 6572     		strb	r5, [r4, #9]
 215              		.loc 1 89 0
 216 002a FFF7FEFF 		bl	i2cMasterTransmitTimeout
 217              	.LVL10:
 218              		.loc 1 90 0
 219 002e 0546     		mov	r5, r0
 220              		.loc 1 103 0
 221 0030 3046     		mov	r0, r6
 222              	.LVL11:
 223              		.loc 1 90 0
 224 0032 002D     		cmp	r5, #0
ARM GAS  /tmp/cc0PDqh8.s 			page 5


 225 0034 42D1     		bne	.L33
 226              		.loc 1 100 0
 227 0036 2623     		movs	r3, #38
 228 0038 2372     		strb	r3, [r4, #8]
 229              		.loc 1 102 0
 230 003a 3923     		movs	r3, #57
 231 003c 6372     		strb	r3, [r4, #9]
 232              		.loc 1 103 0
 233 003e FFF7FEFF 		bl	i2cAcquireBus
 234              	.LVL12:
 235              		.loc 1 104 0
 236 0042 0195     		str	r5, [sp, #4]
 237 0044 6021     		movs	r1, #96
 238 0046 04F10802 		add	r2, r4, #8
 239 004a 0223     		movs	r3, #2
 240 004c CDF80080 		str	r8, [sp, #0]
 241 0050 0297     		str	r7, [sp, #8]
 242 0052 3046     		mov	r0, r6
 243 0054 FFF7FEFF 		bl	i2cMasterTransmitTimeout
 244              	.LVL13:
 245 0058 0546     		mov	r5, r0
 246              	.LVL14:
 247              		.loc 1 105 0
 248 005a 3046     		mov	r0, r6
 249              	.LVL15:
 250 005c FFF7FEFF 		bl	i2cReleaseBus
 251              	.LVL16:
 252              		.loc 1 120 0
 253 0060 3046     		mov	r0, r6
 254              		.loc 1 106 0
 255 0062 5DBB     		cbnz	r5, .L33
 256              	.LVL17:
 257              		.loc 1 118 0
 258 0064 2923     		movs	r3, #41
 259 0066 2372     		strb	r3, [r4, #8]
 260              		.loc 1 119 0
 261 0068 8023     		movs	r3, #128
 262 006a 6372     		strb	r3, [r4, #9]
 263              		.loc 1 120 0
 264 006c FFF7FEFF 		bl	i2cAcquireBus
 265              	.LVL18:
 266              		.loc 1 121 0
 267 0070 0195     		str	r5, [sp, #4]
 268 0072 6021     		movs	r1, #96
 269 0074 04F10802 		add	r2, r4, #8
 270 0078 0223     		movs	r3, #2
 271 007a CDF80080 		str	r8, [sp, #0]
 272 007e 0297     		str	r7, [sp, #8]
 273 0080 3046     		mov	r0, r6
 274 0082 FFF7FEFF 		bl	i2cMasterTransmitTimeout
 275              	.LVL19:
 276 0086 0546     		mov	r5, r0
 277              	.LVL20:
 278              		.loc 1 122 0
 279 0088 3046     		mov	r0, r6
 280              	.LVL21:
 281 008a FFF7FEFF 		bl	i2cReleaseBus
ARM GAS  /tmp/cc0PDqh8.s 			page 6


 282              	.LVL22:
 283              		.loc 1 137 0
 284 008e 3046     		mov	r0, r6
 285              		.loc 1 123 0
 286 0090 A5B9     		cbnz	r5, .L33
 287              	.LVL23:
 288              		.loc 1 136 0
 289 0092 0723     		movs	r3, #7
 290 0094 2372     		strb	r3, [r4, #8]
 291              		.loc 1 137 0
 292 0096 FFF7FEFF 		bl	i2cAcquireBus
 293              	.LVL24:
 294              		.loc 1 138 0
 295 009a 0195     		str	r5, [sp, #4]
 296 009c CDF80080 		str	r8, [sp, #0]
 297 00a0 0297     		str	r7, [sp, #8]
 298 00a2 3046     		mov	r0, r6
 299 00a4 6021     		movs	r1, #96
 300 00a6 04F10802 		add	r2, r4, #8
 301 00aa 0223     		movs	r3, #2
 302 00ac FFF7FEFF 		bl	i2cMasterTransmitTimeout
 303              	.LVL25:
 304 00b0 0546     		mov	r5, r0
 305              	.LVL26:
 306              		.loc 1 139 0
 307 00b2 3046     		mov	r0, r6
 308              	.LVL27:
 309 00b4 FFF7FEFF 		bl	i2cReleaseBus
 310              	.LVL28:
 311              		.loc 1 140 0
 312 00b8 1DB1     		cbz	r5, .L28
 313              		.loc 1 145 0
 314 00ba 3046     		mov	r0, r6
 315              	.L33:
 316 00bc FFF7FEFF 		bl	i2cGetErrors
 317              	.LVL29:
 318 00c0 2060     		str	r0, [r4, #0]
 319              	.L28:
 320              		.loc 1 184 0
 321 00c2 2846     		mov	r0, r5
 322 00c4 04B0     		add	sp, sp, #16
 323 00c6 BDE8F081 		pop	{r4, r5, r6, r7, r8, pc}
 324              	.L35:
 325 00ca 00BF     		.align	2
 326              	.L34:
 327 00cc 00000000 		.word	.LANCHOR1
 328              		.cfi_endproc
 329              	.LFE121:
 330              		.size	mpl3115a2_init, .-mpl3115a2_init
 331              		.section	.text.mpl3115a2_get_bar,"ax",%progbits
 332              		.align	2
 333              		.p2align 4,,15
 334              		.global	mpl3115a2_get_bar
 335              		.thumb
 336              		.thumb_func
 337              		.type	mpl3115a2_get_bar, %function
 338              	mpl3115a2_get_bar:
ARM GAS  /tmp/cc0PDqh8.s 			page 7


 339              	.LFB122:
 340              		.loc 1 186 0
 341              		.cfi_startproc
 342              		@ args = 0, pretend = 0, frame = 0
 343              		@ frame_needed = 0, uses_anonymous_args = 0
 344              	.LVL30:
 345 0000 2DE9F043 		push	{r4, r5, r6, r7, r8, r9, lr}
 346              	.LCFI3:
 347              		.cfi_def_cfa_offset 28
 348              		.cfi_offset 4, -28
 349              		.cfi_offset 5, -24
 350              		.cfi_offset 6, -20
 351              		.cfi_offset 7, -16
 352              		.cfi_offset 8, -12
 353              		.cfi_offset 9, -8
 354              		.cfi_offset 14, -4
 355              		.loc 1 195 0
 356 0004 2B4C     		ldr	r4, .L39
 357              		.loc 1 186 0
 358 0006 85B0     		sub	sp, sp, #20
 359              	.LCFI4:
 360              		.cfi_def_cfa_offset 48
 361              		.loc 1 186 0
 362 0008 0646     		mov	r6, r0
 363              		.loc 1 195 0
 364 000a 0125     		movs	r5, #1
 365              		.loc 1 197 0
 366 000c 04F13A08 		add	r8, r4, #58
 367 0010 4FF4C877 		mov	r7, #400
 368              		.loc 1 195 0
 369 0014 2572     		strb	r5, [r4, #8]
 370              		.loc 1 196 0
 371 0016 FFF7FEFF 		bl	i2cAcquireBus
 372              	.LVL31:
 373              		.loc 1 197 0
 374 001a CDF80080 		str	r8, [sp, #0]
 375 001e 0195     		str	r5, [sp, #4]
 376 0020 0297     		str	r7, [sp, #8]
 377 0022 3046     		mov	r0, r6
 378 0024 6021     		movs	r1, #96
 379 0026 04F10802 		add	r2, r4, #8
 380 002a 2B46     		mov	r3, r5
 381 002c FFF7FEFF 		bl	i2cMasterTransmitTimeout
 382              	.LVL32:
 383 0030 8146     		mov	r9, r0
 384              	.LVL33:
 385              		.loc 1 198 0
 386 0032 3046     		mov	r0, r6
 387              	.LVL34:
 388 0034 FFF7FEFF 		bl	i2cReleaseBus
 389              	.LVL35:
 390              		.loc 1 199 0
 391 0038 B9F1000F 		cmp	r9, #0
 392 003c 37D1     		bne	.L36
 393              		.loc 1 201 0
 394 003e 94F83A30 		ldrb	r3, [r4, #58]	@ zero_extendqisi2
 395              		.loc 1 209 0
ARM GAS  /tmp/cc0PDqh8.s 			page 8


 396 0042 3046     		mov	r0, r6
 397              		.loc 1 201 0
 398 0044 84F86E30 		strb	r3, [r4, #110]
 399              		.loc 1 208 0
 400 0048 0223     		movs	r3, #2
 401 004a 2372     		strb	r3, [r4, #8]
 402              		.loc 1 209 0
 403 004c FFF7FEFF 		bl	i2cAcquireBus
 404              	.LVL36:
 405              		.loc 1 210 0
 406 0050 CDF80080 		str	r8, [sp, #0]
 407 0054 0195     		str	r5, [sp, #4]
 408 0056 0297     		str	r7, [sp, #8]
 409 0058 3046     		mov	r0, r6
 410 005a 6021     		movs	r1, #96
 411 005c 04F10802 		add	r2, r4, #8
 412 0060 2B46     		mov	r3, r5
 413 0062 FFF7FEFF 		bl	i2cMasterTransmitTimeout
 414              	.LVL37:
 415 0066 8146     		mov	r9, r0
 416              	.LVL38:
 417              		.loc 1 211 0
 418 0068 3046     		mov	r0, r6
 419              	.LVL39:
 420 006a FFF7FEFF 		bl	i2cReleaseBus
 421              	.LVL40:
 422              		.loc 1 212 0
 423 006e B9F1000F 		cmp	r9, #0
 424 0072 1CD1     		bne	.L36
 425              		.loc 1 214 0
 426 0074 94F83A30 		ldrb	r3, [r4, #58]	@ zero_extendqisi2
 427              		.loc 1 223 0
 428 0078 3046     		mov	r0, r6
 429              		.loc 1 214 0
 430 007a 84F86F30 		strb	r3, [r4, #111]
 431              	.LVL41:
 432              		.loc 1 222 0
 433 007e 0323     		movs	r3, #3
 434 0080 2372     		strb	r3, [r4, #8]
 435              		.loc 1 223 0
 436 0082 FFF7FEFF 		bl	i2cAcquireBus
 437              	.LVL42:
 438              		.loc 1 224 0
 439 0086 0195     		str	r5, [sp, #4]
 440 0088 2B46     		mov	r3, r5
 441 008a CDF80080 		str	r8, [sp, #0]
 442 008e 0297     		str	r7, [sp, #8]
 443 0090 3046     		mov	r0, r6
 444 0092 6021     		movs	r1, #96
 445 0094 04F10802 		add	r2, r4, #8
 446 0098 FFF7FEFF 		bl	i2cMasterTransmitTimeout
 447              	.LVL43:
 448 009c 0546     		mov	r5, r0
 449              	.LVL44:
 450              		.loc 1 225 0
 451 009e 3046     		mov	r0, r6
 452              	.LVL45:
ARM GAS  /tmp/cc0PDqh8.s 			page 9


 453 00a0 FFF7FEFF 		bl	i2cReleaseBus
 454              	.LVL46:
 455              		.loc 1 226 0
 456 00a4 1DB9     		cbnz	r5, .L36
 457              		.loc 1 228 0
 458 00a6 94F83A30 		ldrb	r3, [r4, #58]	@ zero_extendqisi2
 459 00aa 84F87030 		strb	r3, [r4, #112]
 460              	.LVL47:
 461              	.L36:
 462              		.loc 1 235 0
 463 00ae 05B0     		add	sp, sp, #20
 464 00b0 BDE8F083 		pop	{r4, r5, r6, r7, r8, r9, pc}
 465              	.L40:
 466              		.align	2
 467              	.L39:
 468 00b4 00000000 		.word	.LANCHOR1
 469              		.cfi_endproc
 470              	.LFE122:
 471              		.size	mpl3115a2_get_bar, .-mpl3115a2_get_bar
 472 00b8 AFF30080 		.section	.text.mpl3115a2_get_temperature,"ax",%progbits
 472      AFF30080 
 473              		.align	2
 474              		.p2align 4,,15
 475              		.global	mpl3115a2_get_temperature
 476              		.thumb
 477              		.thumb_func
 478              		.type	mpl3115a2_get_temperature, %function
 479              	mpl3115a2_get_temperature:
 480              	.LFB123:
 481              		.loc 1 237 0
 482              		.cfi_startproc
 483              		@ args = 0, pretend = 0, frame = 0
 484              		@ frame_needed = 0, uses_anonymous_args = 0
 485              	.LVL48:
 486 0000 2DE9F043 		push	{r4, r5, r6, r7, r8, r9, lr}
 487              	.LCFI5:
 488              		.cfi_def_cfa_offset 28
 489              		.cfi_offset 4, -28
 490              		.cfi_offset 5, -24
 491              		.cfi_offset 6, -20
 492              		.cfi_offset 7, -16
 493              		.cfi_offset 8, -12
 494              		.cfi_offset 9, -8
 495              		.cfi_offset 14, -4
 496              		.loc 1 243 0
 497 0004 214C     		ldr	r4, .L47
 498              		.loc 1 237 0
 499 0006 85B0     		sub	sp, sp, #20
 500              	.LCFI6:
 501              		.cfi_def_cfa_offset 48
 502              		.loc 1 237 0
 503 0008 0546     		mov	r5, r0
 504              		.loc 1 243 0
 505 000a 0423     		movs	r3, #4
 506              		.loc 1 245 0
 507 000c 0126     		movs	r6, #1
 508 000e 04F13A08 		add	r8, r4, #58
ARM GAS  /tmp/cc0PDqh8.s 			page 10


 509 0012 4FF4C877 		mov	r7, #400
 510              		.loc 1 243 0
 511 0016 2372     		strb	r3, [r4, #8]
 512              		.loc 1 244 0
 513 0018 FFF7FEFF 		bl	i2cAcquireBus
 514              	.LVL49:
 515              		.loc 1 245 0
 516 001c CDF80080 		str	r8, [sp, #0]
 517 0020 0196     		str	r6, [sp, #4]
 518 0022 0297     		str	r7, [sp, #8]
 519 0024 2846     		mov	r0, r5
 520 0026 6021     		movs	r1, #96
 521 0028 04F10802 		add	r2, r4, #8
 522 002c 3346     		mov	r3, r6
 523 002e FFF7FEFF 		bl	i2cMasterTransmitTimeout
 524              	.LVL50:
 525 0032 8146     		mov	r9, r0
 526              	.LVL51:
 527              		.loc 1 246 0
 528 0034 2846     		mov	r0, r5
 529              	.LVL52:
 530 0036 FFF7FEFF 		bl	i2cReleaseBus
 531              	.LVL53:
 532              		.loc 1 247 0
 533 003a B9F1000F 		cmp	r9, #0
 534 003e 1FD1     		bne	.L46
 535              		.loc 1 249 0
 536 0040 94F83A30 		ldrb	r3, [r4, #58]	@ zero_extendqisi2
 537              		.loc 1 259 0
 538 0044 2846     		mov	r0, r5
 539              		.loc 1 249 0
 540 0046 84F86D30 		strb	r3, [r4, #109]
 541              	.LVL54:
 542              		.loc 1 258 0
 543 004a 0523     		movs	r3, #5
 544 004c 2372     		strb	r3, [r4, #8]
 545              		.loc 1 259 0
 546 004e FFF7FEFF 		bl	i2cAcquireBus
 547              	.LVL55:
 548              		.loc 1 260 0
 549 0052 0196     		str	r6, [sp, #4]
 550 0054 3346     		mov	r3, r6
 551 0056 CDF80080 		str	r8, [sp, #0]
 552 005a 0297     		str	r7, [sp, #8]
 553 005c 2846     		mov	r0, r5
 554 005e 6021     		movs	r1, #96
 555 0060 04F10802 		add	r2, r4, #8
 556 0064 FFF7FEFF 		bl	i2cMasterTransmitTimeout
 557              	.LVL56:
 558 0068 0646     		mov	r6, r0
 559              	.LVL57:
 560              		.loc 1 261 0
 561 006a 2846     		mov	r0, r5
 562              	.LVL58:
 563 006c FFF7FEFF 		bl	i2cReleaseBus
 564              	.LVL59:
 565              		.loc 1 262 0
ARM GAS  /tmp/cc0PDqh8.s 			page 11


 566 0070 36B9     		cbnz	r6, .L46
 567              		.loc 1 267 0
 568 0072 94F83A30 		ldrb	r3, [r4, #58]	@ zero_extendqisi2
 569 0076 84F86C30 		strb	r3, [r4, #108]
 570              	.LVL60:
 571              	.L41:
 572              		.loc 1 275 0
 573 007a 05B0     		add	sp, sp, #20
 574 007c BDE8F083 		pop	{r4, r5, r6, r7, r8, r9, pc}
 575              	.L46:
 576              		.loc 1 271 0
 577 0080 2846     		mov	r0, r5
 578 0082 FFF7FEFF 		bl	i2cGetErrors
 579              	.LVL61:
 580 0086 2060     		str	r0, [r4, #0]
 581 0088 F7E7     		b	.L41
 582              	.L48:
 583 008a 00BF     		.align	2
 584              	.L47:
 585 008c 00000000 		.word	.LANCHOR1
 586              		.cfi_endproc
 587              	.LFE123:
 588              		.size	mpl3115a2_get_temperature, .-mpl3115a2_get_temperature
 589              		.global	mpl3115a2_i2c_magn_addr
 590              		.global	mpl3115a2_i2c_slave_addr
 591              		.global	mpl3115a2_i2c_timeout
 592              		.global	mpl3115a2_int_event
 593              		.global	mpl3115a2_driver
 594              		.global	mpl3115a2_burst_magn_data
 595              		.global	mpl3115a2_burst_a_g_data
 596              		.global	mpl3115a2_cache_data
 597              		.section	.bss.mpl3115a2_burst_magn_data,"aw",%nobits
 598              		.align	2
 599              		.type	mpl3115a2_burst_magn_data, %object
 600              		.size	mpl3115a2_burst_magn_data, 1
 601              	mpl3115a2_burst_magn_data:
 602 0000 00       		.space	1
 603 0001 000000   		.section	.rodata.mpl3115a2_i2c_magn_addr,"a",%progbits
 604              		.type	mpl3115a2_i2c_magn_addr, %object
 605              		.size	mpl3115a2_i2c_magn_addr, 1
 606              	mpl3115a2_i2c_magn_addr:
 607 0000 0C       		.byte	12
 608              		.section	.rodata.mpl3115a2_i2c_slave_addr,"a",%progbits
 609              		.type	mpl3115a2_i2c_slave_addr, %object
 610              		.size	mpl3115a2_i2c_slave_addr, 1
 611              	mpl3115a2_i2c_slave_addr:
 612 0000 60       		.byte	96
 613              		.section	.bss.mpl3115a2_driver,"aw",%nobits
 614              		.align	2
 615              		.set	.LANCHOR1,. + 0
 616              		.type	mpl3115a2_driver, %object
 617              		.size	mpl3115a2_driver, 116
 618              	mpl3115a2_driver:
 619 0000 00000000 		.space	116
 619      00000000 
 619      00000000 
 619      00000000 
ARM GAS  /tmp/cc0PDqh8.s 			page 12


 619      00000000 
 620              		.section	.bss.mpl3115a2_cache_data,"aw",%nobits
 621              		.align	2
 622              		.set	.LANCHOR2,. + 0
 623              		.type	mpl3115a2_cache_data, %object
 624              		.size	mpl3115a2_cache_data, 104
 625              	mpl3115a2_cache_data:
 626 0000 00000000 		.space	104
 626      00000000 
 626      00000000 
 626      00000000 
 626      00000000 
 627              		.section	.bss.mpl3115a2_burst_a_g_data,"aw",%nobits
 628              		.align	2
 629              		.type	mpl3115a2_burst_a_g_data, %object
 630              		.size	mpl3115a2_burst_a_g_data, 1
 631              	mpl3115a2_burst_a_g_data:
 632 0000 00       		.space	1
 633 0001 000000   		.section	.rodata.i2c_debug_errors,"a",%progbits
 634              		.align	2
 635              		.set	.LANCHOR0,. + 0
 636              		.type	i2c_debug_errors, %object
 637              		.size	i2c_debug_errors, 72
 638              	i2c_debug_errors:
 639 0000 14000000 		.word	.LC1
 640 0004 00000000 		.word	0
 641 0008 28000000 		.word	.LC2
 642 000c 01000000 		.word	1
 643 0010 3C000000 		.word	.LC3
 644 0014 02000000 		.word	2
 645 0018 50000000 		.word	.LC4
 646 001c 04000000 		.word	4
 647 0020 64000000 		.word	.LC5
 648 0024 04000000 		.word	4
 649 0028 78000000 		.word	.LC6
 650 002c 08000000 		.word	8
 651 0030 8C000000 		.word	.LC7
 652 0034 10000000 		.word	16
 653 0038 A0000000 		.word	.LC8
 654 003c 20000000 		.word	32
 655 0040 B4000000 		.word	.LC9
 656 0044 40000000 		.word	64
 657              		.section	.rodata.str1.4,"aMS",%progbits,1
 658              		.align	2
 659              	.LC0:
 660 0000 49324320 		.ascii	"I2C Error Unknown\000"
 660      4572726F 
 660      7220556E 
 660      6B6E6F77 
 660      6E00
 661 0012 0000     		.space	2
 662              	.LC1:
 663 0014 4932435F 		.ascii	"I2C_NO_ERROR    \000"
 663      4E4F5F45 
 663      52524F52 
 663      20202020 
 663      00
ARM GAS  /tmp/cc0PDqh8.s 			page 13


 664 0025 000000   		.space	3
 665              	.LC2:
 666 0028 4932435F 		.ascii	"I2C_BUS_ERROR   \000"
 666      4255535F 
 666      4552524F 
 666      52202020 
 666      00
 667 0039 000000   		.space	3
 668              	.LC3:
 669 003c 4932435F 		.ascii	"I2C_ARBIT_LOST  \000"
 669      41524249 
 669      545F4C4F 
 669      53542020 
 669      00
 670 004d 000000   		.space	3
 671              	.LC4:
 672 0050 4932435F 		.ascii	"I2C_ACK_FAIL    \000"
 672      41434B5F 
 672      4641494C 
 672      20202020 
 672      00
 673 0061 000000   		.space	3
 674              	.LC5:
 675 0064 49324344 		.ascii	"I2CD_ACK_FAILURE\000"
 675      5F41434B 
 675      5F464149 
 675      4C555245 
 675      00
 676 0075 000000   		.space	3
 677              	.LC6:
 678 0078 49324344 		.ascii	"I2CD_OVERRUN    \000"
 678      5F4F5645 
 678      5252554E 
 678      20202020 
 678      00
 679 0089 000000   		.space	3
 680              	.LC7:
 681 008c 49324344 		.ascii	"I2CD_PEC_ERROR  \000"
 681      5F504543 
 681      5F455252 
 681      4F522020 
 681      00
 682 009d 000000   		.space	3
 683              	.LC8:
 684 00a0 49324344 		.ascii	"I2CD_TIMEOUT    \000"
 684      5F54494D 
 684      454F5554 
 684      20202020 
 684      00
 685 00b1 000000   		.space	3
 686              	.LC9:
 687 00b4 49324344 		.ascii	"I2CD_SMB_ALERT  \000"
 687      5F534D42 
 687      5F414C45 
 687      52542020 
 687      00
 688 00c5 000000   		.section	.bss.mpl3115a2_int_event,"aw",%nobits
ARM GAS  /tmp/cc0PDqh8.s 			page 14


 689              		.align	2
 690              		.type	mpl3115a2_int_event, %object
 691              		.size	mpl3115a2_int_event, 4
 692              	mpl3115a2_int_event:
 693 0000 00000000 		.space	4
 694              		.section	.rodata.mpl3115a2_i2c_timeout,"a",%progbits
 695              		.align	2
 696              		.type	mpl3115a2_i2c_timeout, %object
 697              		.size	mpl3115a2_i2c_timeout, 4
 698              	mpl3115a2_i2c_timeout:
 699 0000 90010000 		.word	400
 700              		.text
 701              	.Letext0:
 702              		.file 2 "/home/david/toolchains/psas/x-tools/stm32f407/arm-psas-eabi/bin/../lib/gcc/arm-psas-eabi/
 703              		.file 3 "/home/david/toolchains/psas/x-tools/stm32f407/arm-psas-eabi/bin/../lib/gcc/arm-psas-eabi/
 704              		.file 4 "../../ChibiOS/os/ports/GCC/ARMCMx/chtypes.h"
 705              		.file 5 "../../ChibiOS/os/kernel/include/chlists.h"
 706              		.file 6 "../../ChibiOS/os/kernel/include/chthreads.h"
 707              		.file 7 "../../ChibiOS/os/ports/GCC/ARMCMx/chcore_v7m.h"
 708              		.file 8 "../../ChibiOS/os/kernel/include/chmtx.h"
 709              		.file 9 "../../ChibiOS/os/kernel/include/chevents.h"
 710              		.file 10 "../../ChibiOS/os/kernel/include/chqueues.h"
 711              		.file 11 "../../ChibiOS/os/kernel/include/chstreams.h"
 712              		.file 12 "../../ChibiOS/os/hal/platforms/STM32F4xx/stm32f4xx.h"
 713              		.file 13 "../../ChibiOS/os/hal/platforms/STM32F4xx/stm32_dma.h"
 714              		.file 14 "../../ChibiOS/os/hal/include/i2c.h"
 715              		.file 15 "../../ChibiOS/os/hal/platforms/STM32/I2Cv1/i2c_lld.h"
 716              		.file 16 "../../ChibiOS/os/hal/include/usb.h"
 717              		.file 17 "../../ChibiOS/os/hal/platforms/STM32/OTGv1/usb_lld.h"
 718              		.file 18 "../../ChibiOS/os/hal/platforms/STM32/OTGv1/stm32_otg.h"
 719              		.file 19 "../../ChibiOS/os/hal/include/serial_usb.h"
 720              		.file 20 "../../devices/include/MPL3115A2.h"
 721              		.file 21 "../../ChibiOS/os/ports/common/ARMCMx/CMSIS/include/core_cm4.h"
 722              		.file 22 "./usbdetail.h"